target datalayout = "e-m:e-p270:32:32-p271:32:32-p272:64:64-i64:64-i128:128-f80:128-n8:16:32:64-S128"
target triple = "x86_64-pc-linux-gnu"

%struct.oid_stat = type { %struct.stat_data, %struct.object_id, i32 }
%struct.stat_data = type { %struct.cache_time, %struct.cache_time, i32, i32, i32, i32, i32 }
%struct.cache_time = type { i32, i32 }
%struct.object_id = type { [32 x i8], i32 }

@the_repository = external global ptr, align 8
@.str.33 = private unnamed_addr constant [27 x i8] c"size_t overflow: %lu + %lu\00", align 1
@.str.42 = private unnamed_addr constant [29 x i8] c"Cannot handle files this big\00", align 1

; Function Attrs: inlinehint nounwind uwtable
define internal i64 @xsize_t(i64 noundef %0) #3 {
  %2 = alloca i64, align 8
  store i64 %0, ptr %2, align 8, !tbaa !19
  %3 = load i64, ptr %2, align 8, !tbaa !19
  %4 = icmp slt i64 %3, 0
  br i1 %4, label %8, label %5

5:                                                ; preds = %1
  %6 = load i64, ptr %2, align 8, !tbaa !19
  %7 = icmp ugt i64 %6, -1
  br i1 %7, label %8, label %9

8:                                                ; preds = %5, %1
  call void (ptr, ...) @die(ptr noundef @.str.42) #14
  unreachable

9:                                                ; preds = %5
  %10 = load i64, ptr %2, align 8, !tbaa !19
  ret i64 %10
}

; Function Attrs: inlinehint nounwind uwtable
define internal i64 @st_add(i64 noundef %0, i64 noundef %1) #3 {
  %3 = alloca i64, align 8
  %4 = alloca i64, align 8
  store i64 %0, ptr %3, align 8, !tbaa !19
  store i64 %1, ptr %4, align 8, !tbaa !19
  %5 = load i64, ptr %4, align 8, !tbaa !19
  %6 = load i64, ptr %3, align 8, !tbaa !19
  %7 = sub i64 -1, %6
  %8 = icmp ugt i64 %5, %7
  br i1 %8, label %9, label %12

9:                                                ; preds = %2
  %10 = load i64, ptr %3, align 8, !tbaa !19
  %11 = load i64, ptr %4, align 8, !tbaa !19
  call void (ptr, ...) @die(ptr noundef @.str.33, i64 noundef %10, i64 noundef %11) #14
  unreachable

12:                                               ; preds = %2
  %13 = load i64, ptr %3, align 8, !tbaa !19
  %14 = load i64, ptr %4, align 8, !tbaa !19
  %15 = add i64 %13, %14
  ret i64 %15
}

; Function Attrs: inlinehint nounwind uwtable
define internal void @oidcpy(ptr noundef %0, ptr noundef %1) #3 {
  %3 = alloca ptr, align 8
  %4 = alloca ptr, align 8
  store ptr %0, ptr %3, align 8, !tbaa !149
  store ptr %1, ptr %4, align 8, !tbaa !149
  %5 = load ptr, ptr %3, align 8, !tbaa !149
  %6 = getelementptr inbounds nuw %struct.object_id, ptr %5, i32 0, i32 0
  %7 = getelementptr inbounds [32 x i8], ptr %6, i64 0, i64 0
  %8 = load ptr, ptr %4, align 8, !tbaa !149
  %9 = getelementptr inbounds nuw %struct.object_id, ptr %8, i32 0, i32 0
  %10 = getelementptr inbounds [32 x i8], ptr %9, i64 0, i64 0
  call void @llvm.memcpy.p0.p0.i64(ptr align 4 %7, ptr align 4 %10, i64 32, i1 false)
  %11 = load ptr, ptr %4, align 8, !tbaa !149
  %12 = getelementptr inbounds nuw %struct.object_id, ptr %11, i32 0, i32 1
  %13 = load i32, ptr %12, align 4, !tbaa !285
  %14 = load ptr, ptr %3, align 8, !tbaa !149
  %15 = getelementptr inbounds nuw %struct.object_id, ptr %14, i32 0, i32 1
  store i32 %13, ptr %15, align 4, !tbaa !285
  ret void
}

; Function Attrs: nounwind uwtable
define internal i32 @do_read_blob(ptr noundef %0, ptr noundef %1, ptr noundef %2, ptr noundef %3) #0 {
  %5 = alloca i32, align 4
  %6 = alloca ptr, align 8
  %7 = alloca ptr, align 8
  %8 = alloca ptr, align 8
  %9 = alloca ptr, align 8
  %10 = alloca i32, align 4
  %11 = alloca i64, align 8
  %12 = alloca ptr, align 8
  %13 = alloca i32, align 4
  store ptr %0, ptr %6, align 8, !tbaa !149
  store ptr %1, ptr %7, align 8, !tbaa !135
  store ptr %2, ptr %8, align 8, !tbaa !150
  store ptr %3, ptr %9, align 8, !tbaa !101
  call void @llvm.lifetime.start.p0(i64 4, ptr %10) #12
  call void @llvm.lifetime.start.p0(i64 8, ptr %11) #12
  call void @llvm.lifetime.start.p0(i64 8, ptr %12) #12
  %14 = load ptr, ptr %8, align 8, !tbaa !150
  store i64 0, ptr %14, align 8, !tbaa !19
  %15 = load ptr, ptr %9, align 8, !tbaa !101
  store ptr null, ptr %15, align 8, !tbaa !13
  %16 = load ptr, ptr @the_repository, align 8, !tbaa !140
  %17 = load ptr, ptr %6, align 8, !tbaa !149
  %18 = call ptr @repo_read_object_file(ptr noundef %16, ptr noundef %17, ptr noundef %10, ptr noundef %11)
  store ptr %18, ptr %12, align 8, !tbaa !13
  %19 = load ptr, ptr %12, align 8, !tbaa !13
  %20 = icmp ne ptr %19, null
  br i1 %20, label %21, label %24

21:                                               ; preds = %4
  %22 = load i32, ptr %10, align 4, !tbaa !16
  %23 = icmp ne i32 %22, 3
  br i1 %23, label %24, label %26

24:                                               ; preds = %21, %4
  %25 = load ptr, ptr %12, align 8, !tbaa !13
  call void @free(ptr noundef %25) #12
  store i32 -1, ptr %5, align 4
  store i32 1, ptr %13, align 4
  br label %63

26:                                               ; preds = %21
  %27 = load ptr, ptr %7, align 8, !tbaa !135
  %28 = icmp ne ptr %27, null
  br i1 %28, label %29, label %35

29:                                               ; preds = %26
  %30 = load ptr, ptr %7, align 8, !tbaa !135
  %31 = getelementptr inbounds nuw %struct.oid_stat, ptr %30, i32 0, i32 0
  call void @llvm.memset.p0.i64(ptr align 4 %31, i8 0, i64 36, i1 false)
  %32 = load ptr, ptr %7, align 8, !tbaa !135
  %33 = getelementptr inbounds nuw %struct.oid_stat, ptr %32, i32 0, i32 1
  %34 = load ptr, ptr %6, align 8, !tbaa !149
  call void @oidcpy(ptr noundef %33, ptr noundef %34)
  br label %35

35:                                               ; preds = %29, %26
  %36 = load i64, ptr %11, align 8, !tbaa !19
  %37 = icmp eq i64 %36, 0
  br i1 %37, label %38, label %40

38:                                               ; preds = %35
  %39 = load ptr, ptr %12, align 8, !tbaa !13
  call void @free(ptr noundef %39) #12
  store i32 0, ptr %5, align 4
  store i32 1, ptr %13, align 4
  br label %63

40:                                               ; preds = %35
  %41 = load ptr, ptr %12, align 8, !tbaa !13
  %42 = load i64, ptr %11, align 8, !tbaa !19
  %43 = sub i64 %42, 1
  %44 = getelementptr inbounds nuw i8, ptr %41, i64 %43
  %45 = load i8, ptr %44, align 1, !tbaa !15
  %46 = sext i8 %45 to i32
  %47 = icmp ne i32 %46, 10
  br i1 %47, label %48, label %57

48:                                               ; preds = %40
  %49 = load ptr, ptr %12, align 8, !tbaa !13
  %50 = load i64, ptr %11, align 8, !tbaa !19
  %51 = call i64 @st_add(i64 noundef %50, i64 noundef 1)
  %52 = call ptr @xrealloc(ptr noundef %49, i64 noundef %51)
  store ptr %52, ptr %12, align 8, !tbaa !13
  %53 = load ptr, ptr %12, align 8, !tbaa !13
  %54 = load i64, ptr %11, align 8, !tbaa !19
  %55 = add i64 %54, 1
  store i64 %55, ptr %11, align 8, !tbaa !19
  %56 = getelementptr inbounds nuw i8, ptr %53, i64 %54
  store i8 10, ptr %56, align 1, !tbaa !15
  br label %57

57:                                               ; preds = %48, %40
  %58 = load i64, ptr %11, align 8, !tbaa !19
  %59 = call i64 @xsize_t(i64 noundef %58)
  %60 = load ptr, ptr %8, align 8, !tbaa !150
  store i64 %59, ptr %60, align 8, !tbaa !19
  %61 = load ptr, ptr %12, align 8, !tbaa !13
  %62 = load ptr, ptr %9, align 8, !tbaa !101
  store ptr %61, ptr %62, align 8, !tbaa !13
  store i32 1, ptr %5, align 4
  store i32 1, ptr %13, align 4
  br label %63

63:                                               ; preds = %57, %38, %24
  call void @llvm.lifetime.end.p0(i64 8, ptr %12) #12
  call void @llvm.lifetime.end.p0(i64 8, ptr %11) #12
  call void @llvm.lifetime.end.p0(i64 4, ptr %10) #12
  %64 = load i32, ptr %5, align 4
  ret i32 %64
}