; Function Attrs: nounwind uwtable
define internal fastcc range(i32 -1, 2) i32 @do_read_blob(ptr noundef %0, ptr noundef writeonly %1, ptr noundef nonnull writeonly captures(none) initializes((0, 8)) %2, ptr noundef nonnull writeonly captures(none) initializes((0, 8)) %3) unnamed_addr #0 {
  %5 = alloca i32, align 4
  %6 = alloca i64, align 8
  call void @llvm.lifetime.start.p0(i64 4, ptr nonnull %5) #27
  call void @llvm.lifetime.start.p0(i64 8, ptr nonnull %6) #27
  store i64 0, ptr %2, align 8, !tbaa !128
  store ptr null, ptr %3, align 8, !tbaa !102
  %7 = load ptr, ptr @the_repository, align 8, !tbaa !132
  %8 = call ptr @repo_read_object_file(ptr noundef %7, ptr noundef %0, ptr noundef nonnull %5, ptr noundef nonnull %6) #27
  %9 = icmp eq ptr %8, null
  %10 = load i32, ptr %5, align 4
  %11 = icmp ne i32 %10, 3
  %or.cond = select i1 %9, i1 true, i1 %11
  br i1 %or.cond, label %12, label %13

12:                                               ; preds = %4
  call void @free(ptr noundef %8) #27
  br label %39

13:                                               ; preds = %4
  %.not = icmp eq ptr %1, null
  br i1 %.not, label %19, label %14

14:                                               ; preds = %13
  call void @llvm.memset.p0.i64(ptr noundef nonnull align 4 dereferenceable(36) %1, i8 0, i64 36, i1 false)
  %15 = getelementptr inbounds nuw i8, ptr %1, i64 36
  call void @llvm.memcpy.p0.p0.i64(ptr noundef nonnull align 4 dereferenceable(32) %15, ptr noundef nonnull readonly align 4 dereferenceable(32) %0, i64 32, i1 false)
  %16 = getelementptr inbounds nuw i8, ptr %0, i64 32
  %17 = load i32, ptr %16, align 4, !tbaa !137
  %18 = getelementptr inbounds nuw i8, ptr %1, i64 68
  store i32 %17, ptr %18, align 4, !tbaa !137
  br label %19

19:                                               ; preds = %14, %13
  %20 = load i64, ptr %6, align 8, !tbaa !128
  %21 = icmp eq i64 %20, 0
  br i1 %21, label %22, label %23

22:                                               ; preds = %19
  call void @free(ptr noundef nonnull %8) #27
  br label %39

23:                                               ; preds = %19
  %24 = getelementptr i8, ptr %8, i64 %20
  %25 = getelementptr i8, ptr %24, i64 -1
  %26 = load i8, ptr %25, align 1, !tbaa !4
  %.not21 = icmp eq i8 %26, 10
  br i1 %.not21, label %35, label %27

27:                                               ; preds = %23
  %28 = icmp eq i64 %20, -1
  br i1 %28, label %29, label %st_add.exit

29:                                               ; preds = %27
  call void (ptr, ...) @die(ptr noundef nonnull @.str.33, i64 noundef -1, i64 noundef 1) #29
  unreachable

st_add.exit:                                      ; preds = %27
  %30 = add nuw i64 %20, 1
  %31 = call ptr @xrealloc(ptr noundef nonnull %8, i64 noundef %30) #27
  %32 = load i64, ptr %6, align 8, !tbaa !128
  %33 = add i64 %32, 1
  store i64 %33, ptr %6, align 8, !tbaa !128
  %34 = getelementptr inbounds nuw i8, ptr %31, i64 %32
  store i8 10, ptr %34, align 1, !tbaa !4
  %.pre = load i64, ptr %6, align 8, !tbaa !128
  br label %35

35:                                               ; preds = %st_add.exit, %23
  %36 = phi i64 [ %.pre, %st_add.exit ], [ %20, %23 ]
  %.0 = phi ptr [ %31, %st_add.exit ], [ %8, %23 ]
  %37 = icmp slt i64 %36, 0
  br i1 %37, label %38, label %xsize_t.exit

38:                                               ; preds = %35
  call void (ptr, ...) @die(ptr noundef nonnull @.str.42) #29
  unreachable

xsize_t.exit:                                     ; preds = %35
  store i64 %36, ptr %2, align 8, !tbaa !128
  store ptr %.0, ptr %3, align 8, !tbaa !102
  br label %39

39:                                               ; preds = %xsize_t.exit, %22, %12
  %.017 = phi i32 [ -1, %12 ], [ 0, %22 ], [ 1, %xsize_t.exit ]
  call void @llvm.lifetime.end.p0(i64 8, ptr nonnull %6) #27
  call void @llvm.lifetime.end.p0(i64 4, ptr nonnull %5) #27
  ret i32 %.017
}